; Function Attrs: nounwind uwtable
define dso_local ptr @make_full_path(ptr noundef %0) local_unnamed_addr #0 {
  %2 = alloca ptr, align 8
  call void @llvm.lifetime.start.p0(i64 8, ptr nonnull %2) #14
  store ptr null, ptr %2, align 8
  %3 = tail call ptr @get_current_dir_name() #14
  call void (ptr, ptr, ...) @_xstrfmtcat(ptr noundef nonnull %2, ptr noundef nonnull @.str.2, ptr noundef %3, ptr noundef %0) #14
  call void @free(ptr noundef %3) #14
  %4 = load ptr, ptr %2, align 8
  call void @llvm.lifetime.end.p0(i64 8, ptr nonnull %2) #14
  ret ptr %4
}